target datalayout = "e-m:e-p270:32:32-p271:32:32-p272:64:64-i64:64-i128:128-f80:128-n8:16:32:64-S128"
target triple = "x86_64-pc-linux-gnu"

%class.LogTagSet = type { ptr, i64, [5 x i32], [4 x i8], %class.LogOutputList, %class.LogDecorators, ptr }
%class.LogOutputList = type <{ [6 x ptr], i32, [4 x i8] }>
%class.LogDecorators = type { i32 }
%class.GCLogPreciousHandle = type { %class.LogTargetHandle }
%class.LogTargetHandle = type { i32, ptr }
%class.LogTargetImpl = type { i8 }

@.str = private unnamed_addr constant [54 x i8] c"Alignments: Space %lu%s, Generation %lu%s, Heap %lu%s\00", align 1
@SpaceAlignment = external global i64, align 8
@GenAlignment = external global i64, align 8
@HeapAlignment = external global i64, align 8
@_ZN16LogTagSetMappingILN6LogTag4typeE49ELS1_58ELS1_0ELS1_0ELS1_0ELS1_0EE7_tagsetE = linkonce_odr hidden global %class.LogTagSet zeroinitializer, comdat, align 8
@.str.5 = private unnamed_addr constant [2 x i8] c"G\00", align 1
@.str.6 = private unnamed_addr constant [2 x i8] c"M\00", align 1
@.str.7 = private unnamed_addr constant [2 x i8] c"K\00", align 1
@.str.8 = private unnamed_addr constant [2 x i8] c"B\00", align 1

; Function Attrs: mustprogress nounwind uwtable
define linkonce_odr hidden noundef nonnull align 8 dereferenceable(112) ptr @_ZN16LogTagSetMappingILN6LogTag4typeE49ELS1_58ELS1_0ELS1_0ELS1_0ELS1_0EE6tagsetEv() #1 comdat align 2 {
  ret ptr @_ZN16LogTagSetMappingILN6LogTag4typeE49ELS1_58ELS1_0ELS1_0ELS1_0ELS1_0EE7_tagsetE
}

; Function Attrs: mustprogress nounwind uwtable
define linkonce_odr hidden void @_ZN15LogTargetHandleC2ILN8LogLevel4typeE3ELN6LogTag4typeE49ELS4_58ELS4_0ELS4_0ELS4_0ELS4_0EEERK13LogTargetImplIXT_EXT0_EXT1_EXT2_EXT3_EXT4_EXT5_EE(ptr noundef nonnull align 8 dereferenceable(16) %0, ptr noundef nonnull align 1 dereferenceable(1) %1) unnamed_addr #1 comdat align 2 {
  %3 = alloca ptr, align 8
  %4 = alloca ptr, align 8
  store ptr %0, ptr %3, align 8
  store ptr %1, ptr %4, align 8
  %5 = load ptr, ptr %3, align 8
  %6 = getelementptr inbounds %class.LogTargetHandle, ptr %5, i32 0, i32 0
  store i32 3, ptr %6, align 8
  %7 = getelementptr inbounds %class.LogTargetHandle, ptr %5, i32 0, i32 1
  %8 = call noundef nonnull align 8 dereferenceable(112) ptr @_ZN16LogTagSetMappingILN6LogTag4typeE49ELS1_58ELS1_0ELS1_0ELS1_0ELS1_0EE6tagsetEv()
  store ptr %8, ptr %7, align 8
  ret void
}

; Function Attrs: mustprogress nounwind uwtable
define linkonce_odr hidden void @_ZN13LogTargetImplILN8LogLevel4typeE3ELN6LogTag4typeE49ELS3_58ELS3_0ELS3_0ELS3_0ELS3_0EEC2Ev(ptr noundef nonnull align 1 dereferenceable(1) %0) unnamed_addr #1 comdat align 2 {
  %2 = alloca ptr, align 8
  store ptr %0, ptr %2, align 8
  ret void
}

; Function Attrs: mustprogress nounwind uwtable
define linkonce_odr hidden noundef ptr @_Z24exact_unit_for_byte_sizem(i64 noundef %0) #1 comdat {
  %2 = alloca ptr, align 8
  %3 = alloca i64, align 8
  store i64 %0, ptr %3, align 8
  %4 = load i64, ptr %3, align 8
  %5 = icmp uge i64 %4, 1073741824
  br i1 %5, label %6, label %11

6:                                                ; preds = %1
  %7 = load i64, ptr %3, align 8
  %8 = urem i64 %7, 1073741824
  %9 = icmp eq i64 %8, 0
  br i1 %9, label %10, label %11

10:                                               ; preds = %6
  store ptr @.str.5, ptr %2, align 8
  br label %28

11:                                               ; preds = %6, %1
  %12 = load i64, ptr %3, align 8
  %13 = icmp uge i64 %12, 1048576
  br i1 %13, label %14, label %19

14:                                               ; preds = %11
  %15 = load i64, ptr %3, align 8
  %16 = urem i64 %15, 1048576
  %17 = icmp eq i64 %16, 0
  br i1 %17, label %18, label %19

18:                                               ; preds = %14
  store ptr @.str.6, ptr %2, align 8
  br label %28

19:                                               ; preds = %14, %11
  %20 = load i64, ptr %3, align 8
  %21 = icmp uge i64 %20, 1024
  br i1 %21, label %22, label %27

22:                                               ; preds = %19
  %23 = load i64, ptr %3, align 8
  %24 = urem i64 %23, 1024
  %25 = icmp eq i64 %24, 0
  br i1 %25, label %26, label %27

26:                                               ; preds = %22
  store ptr @.str.7, ptr %2, align 8
  br label %28

27:                                               ; preds = %22, %19
  store ptr @.str.8, ptr %2, align 8
  br label %28

28:                                               ; preds = %27, %26, %18, %10
  %29 = load ptr, ptr %2, align 8
  ret ptr %29
}

; Function Attrs: mustprogress nounwind uwtable
define linkonce_odr hidden noundef i64 @_Z23byte_size_in_exact_unitm(i64 noundef %0) #1 comdat {
  %2 = alloca i64, align 8
  %3 = alloca i64, align 8
  store i64 %0, ptr %3, align 8
  %4 = load i64, ptr %3, align 8
  %5 = icmp uge i64 %4, 1073741824
  br i1 %5, label %6, label %13

6:                                                ; preds = %1
  %7 = load i64, ptr %3, align 8
  %8 = urem i64 %7, 1073741824
  %9 = icmp eq i64 %8, 0
  br i1 %9, label %10, label %13

10:                                               ; preds = %6
  %11 = load i64, ptr %3, align 8
  %12 = udiv i64 %11, 1073741824
  store i64 %12, ptr %2, align 8
  br label %35

13:                                               ; preds = %6, %1
  %14 = load i64, ptr %3, align 8
  %15 = icmp uge i64 %14, 1048576
  br i1 %15, label %16, label %23

16:                                               ; preds = %13
  %17 = load i64, ptr %3, align 8
  %18 = urem i64 %17, 1048576
  %19 = icmp eq i64 %18, 0
  br i1 %19, label %20, label %23

20:                                               ; preds = %16
  %21 = load i64, ptr %3, align 8
  %22 = udiv i64 %21, 1048576
  store i64 %22, ptr %2, align 8
  br label %35

23:                                               ; preds = %16, %13
  %24 = load i64, ptr %3, align 8
  %25 = icmp uge i64 %24, 1024
  br i1 %25, label %26, label %33

26:                                               ; preds = %23
  %27 = load i64, ptr %3, align 8
  %28 = urem i64 %27, 1024
  %29 = icmp eq i64 %28, 0
  br i1 %29, label %30, label %33

30:                                               ; preds = %26
  %31 = load i64, ptr %3, align 8
  %32 = udiv i64 %31, 1024
  store i64 %32, ptr %2, align 8
  br label %35

33:                                               ; preds = %26, %23
  %34 = load i64, ptr %3, align 8
  store i64 %34, ptr %2, align 8
  br label %35

35:                                               ; preds = %33, %30, %20, %10
  %36 = load i64, ptr %2, align 8
  ret i64 %36
}

; Function Attrs: mustprogress nounwind uwtable
define linkonce_odr hidden void @_ZN19GCLogPreciousHandleC2E15LogTargetHandle(ptr noundef nonnull align 8 dereferenceable(16) %0, i32 %1, ptr %2) unnamed_addr #1 comdat align 2 {
  %4 = alloca %class.LogTargetHandle, align 8
  %5 = alloca ptr, align 8
  %6 = getelementptr inbounds { i32, ptr }, ptr %4, i32 0, i32 0
  store i32 %1, ptr %6, align 8
  %7 = getelementptr inbounds { i32, ptr }, ptr %4, i32 0, i32 1
  store ptr %2, ptr %7, align 8
  store ptr %0, ptr %5, align 8
  %8 = load ptr, ptr %5, align 8
  %9 = getelementptr inbounds %class.GCLogPreciousHandle, ptr %8, i32 0, i32 0
  call void @llvm.memcpy.p0.p0.i64(ptr align 8 %9, ptr align 8 %4, i64 16, i1 false)
  ret void
}

; Function Attrs: mustprogress nounwind uwtable
define linkonce_odr hidden { i32, ptr } @_ZN15LogTargetHandle6createILN8LogLevel4typeE3ELN6LogTag4typeE49ELS4_58ELS4_0ELS4_0ELS4_0ELS4_0EEES_v() #1 comdat align 2 {
  %1 = alloca %class.LogTargetHandle, align 8
  %2 = alloca %class.LogTargetImpl, align 1
  call void @_ZN13LogTargetImplILN8LogLevel4typeE3ELN6LogTag4typeE49ELS3_58ELS3_0ELS3_0ELS3_0ELS3_0EEC2Ev(ptr noundef nonnull align 1 dereferenceable(1) %2)
  call void @_ZN15LogTargetHandleC2ILN8LogLevel4typeE3ELN6LogTag4typeE49ELS4_58ELS4_0ELS4_0ELS4_0ELS4_0EEERK13LogTargetImplIXT_EXT0_EXT1_EXT2_EXT3_EXT4_EXT5_EE(ptr noundef nonnull align 8 dereferenceable(16) %1, ptr noundef nonnull align 1 dereferenceable(1) %2)
  %3 = load { i32, ptr }, ptr %1, align 8
  ret { i32, ptr } %3
}

; Function Attrs: mustprogress nounwind uwtable
define hidden void @_ZN18ParallelInitLogger10print_heapEv(ptr noundef nonnull align 8 dereferenceable(8) %0) unnamed_addr #1 align 2 {
  %2 = alloca ptr, align 8
  %3 = alloca %class.GCLogPreciousHandle, align 8
  %4 = alloca %class.LogTargetHandle, align 8
  store ptr %0, ptr %2, align 8
  %5 = load ptr, ptr %2, align 8
  %6 = call { i32, ptr } @_ZN15LogTargetHandle6createILN8LogLevel4typeE3ELN6LogTag4typeE49ELS4_58ELS4_0ELS4_0ELS4_0ELS4_0EEES_v()
  %7 = getelementptr inbounds { i32, ptr }, ptr %4, i32 0, i32 0
  %8 = extractvalue { i32, ptr } %6, 0
  store i32 %8, ptr %7, align 8
  %9 = getelementptr inbounds { i32, ptr }, ptr %4, i32 0, i32 1
  %10 = extractvalue { i32, ptr } %6, 1
  store ptr %10, ptr %9, align 8
  %11 = getelementptr inbounds { i32, ptr }, ptr %4, i32 0, i32 0
  %12 = load i32, ptr %11, align 8
  %13 = getelementptr inbounds { i32, ptr }, ptr %4, i32 0, i32 1
  %14 = load ptr, ptr %13, align 8
  call void @_ZN19GCLogPreciousHandleC2E15LogTargetHandle(ptr noundef nonnull align 8 dereferenceable(16) %3, i32 %12, ptr %14)
  %15 = load i64, ptr @SpaceAlignment, align 8
  %16 = call noundef i64 @_Z23byte_size_in_exact_unitm(i64 noundef %15)
  %17 = load i64, ptr @SpaceAlignment, align 8
  %18 = call noundef ptr @_Z24exact_unit_for_byte_sizem(i64 noundef %17)
  %19 = load i64, ptr @GenAlignment, align 8
  %20 = call noundef i64 @_Z23byte_size_in_exact_unitm(i64 noundef %19)
  %21 = load i64, ptr @GenAlignment, align 8
  %22 = call noundef ptr @_Z24exact_unit_for_byte_sizem(i64 noundef %21)
  %23 = load i64, ptr @HeapAlignment, align 8
  %24 = call noundef i64 @_Z23byte_size_in_exact_unitm(i64 noundef %23)
  %25 = load i64, ptr @HeapAlignment, align 8
  %26 = call noundef ptr @_Z24exact_unit_for_byte_sizem(i64 noundef %25)
  call void (ptr, ptr, ...) @_ZN19GCLogPreciousHandle5writeEPKcz(ptr noundef nonnull align 8 dereferenceable(16) %3, ptr noundef @.str, i64 noundef %16, ptr noundef %18, i64 noundef %20, ptr noundef %22, i64 noundef %24, ptr noundef %26)
  call void @_ZN12GCInitLogger10print_heapEv(ptr noundef nonnull align 8 dereferenceable(8) %5)
  ret void
}