; Function Attrs: mustprogress nounwind uwtable
define hidden void @_ZN18ParallelInitLogger10print_heapEv(ptr noundef nonnull align 8 dereferenceable(8) %0) unnamed_addr #0 align 2 {
  %2 = alloca %class.GCLogPreciousHandle, align 8
  store i32 3, ptr %2, align 8
  %.sroa.21.0..sroa_idx.i = getelementptr inbounds i8, ptr %2, i64 8
  store ptr @_ZN16LogTagSetMappingILN6LogTag4typeE49ELS1_58ELS1_0ELS1_0ELS1_0ELS1_0EE7_tagsetE, ptr %.sroa.21.0..sroa_idx.i, align 8
  %3 = load i64, ptr @SpaceAlignment, align 8
  %4 = icmp ugt i64 %3, 1073741823
  %5 = and i64 %3, 1073741823
  %6 = icmp eq i64 %5, 0
  %or.cond.i = and i1 %4, %6
  br i1 %or.cond.i, label %_Z23byte_size_in_exact_unitm.exit, label %7

7:                                                ; preds = %1
  %8 = icmp ugt i64 %3, 1048575
  %9 = and i64 %3, 1048575
  %10 = icmp eq i64 %9, 0
  %or.cond14.i = and i1 %8, %10
  br i1 %or.cond14.i, label %.thread, label %13

.thread:                                          ; preds = %7
  %11 = lshr exact i64 %3, 20
  br label %_Z24exact_unit_for_byte_sizem.exit

_Z23byte_size_in_exact_unitm.exit:                ; preds = %1
  %12 = lshr exact i64 %3, 30
  br label %_Z24exact_unit_for_byte_sizem.exit

13:                                               ; preds = %7
  %14 = icmp ugt i64 %3, 1023
  %15 = and i64 %3, 1023
  %16 = icmp eq i64 %15, 0
  %or.cond16.i = and i1 %14, %16
  %17 = lshr exact i64 %3, 10
  %spec.select.i = select i1 %or.cond16.i, i64 %17, i64 %3
  %18 = icmp ugt i64 %3, 1023
  %19 = and i64 %3, 1023
  %20 = icmp eq i64 %19, 0
  %or.cond11.i = and i1 %18, %20
  %spec.select.i2 = select i1 %or.cond11.i, ptr @.str.7, ptr @.str.8
  br label %_Z24exact_unit_for_byte_sizem.exit

_Z24exact_unit_for_byte_sizem.exit:               ; preds = %.thread, %_Z23byte_size_in_exact_unitm.exit, %13
  %.0.i30 = phi i64 [ %12, %_Z23byte_size_in_exact_unitm.exit ], [ %spec.select.i, %13 ], [ %11, %.thread ]
  %.0.i3 = phi ptr [ @.str.5, %_Z23byte_size_in_exact_unitm.exit ], [ %spec.select.i2, %13 ], [ @.str.6, %.thread ]
  %21 = load i64, ptr @GenAlignment, align 8
  %22 = icmp ugt i64 %21, 1073741823
  %23 = and i64 %21, 1073741823
  %24 = icmp eq i64 %23, 0
  %or.cond.i4 = and i1 %22, %24
  br i1 %or.cond.i4, label %_Z23byte_size_in_exact_unitm.exit9, label %25

25:                                               ; preds = %_Z24exact_unit_for_byte_sizem.exit
  %26 = icmp ugt i64 %21, 1048575
  %27 = and i64 %21, 1048575
  %28 = icmp eq i64 %27, 0
  %or.cond14.i5 = and i1 %26, %28
  br i1 %or.cond14.i5, label %.thread38, label %31

.thread38:                                        ; preds = %25
  %29 = lshr exact i64 %21, 20
  br label %_Z24exact_unit_for_byte_sizem.exit15

_Z23byte_size_in_exact_unitm.exit9:               ; preds = %_Z24exact_unit_for_byte_sizem.exit
  %30 = lshr exact i64 %21, 30
  br label %_Z24exact_unit_for_byte_sizem.exit15

31:                                               ; preds = %25
  %32 = icmp ugt i64 %21, 1023
  %33 = and i64 %21, 1023
  %34 = icmp eq i64 %33, 0
  %or.cond16.i6 = and i1 %32, %34
  %35 = lshr exact i64 %21, 10
  %spec.select.i7 = select i1 %or.cond16.i6, i64 %35, i64 %21
  %36 = icmp ugt i64 %21, 1023
  %37 = and i64 %21, 1023
  %38 = icmp eq i64 %37, 0
  %or.cond11.i12 = and i1 %36, %38
  %spec.select.i13 = select i1 %or.cond11.i12, ptr @.str.7, ptr @.str.8
  br label %_Z24exact_unit_for_byte_sizem.exit15

_Z24exact_unit_for_byte_sizem.exit15:             ; preds = %.thread38, %_Z23byte_size_in_exact_unitm.exit9, %31
  %.0.i833 = phi i64 [ %30, %_Z23byte_size_in_exact_unitm.exit9 ], [ %spec.select.i7, %31 ], [ %29, %.thread38 ]
  %.0.i14 = phi ptr [ @.str.5, %_Z23byte_size_in_exact_unitm.exit9 ], [ %spec.select.i13, %31 ], [ @.str.6, %.thread38 ]
  %39 = load i64, ptr @HeapAlignment, align 8
  %40 = icmp ugt i64 %39, 1073741823
  %41 = and i64 %39, 1073741823
  %42 = icmp eq i64 %41, 0
  %or.cond.i16 = and i1 %40, %42
  br i1 %or.cond.i16, label %_Z23byte_size_in_exact_unitm.exit21, label %43

43:                                               ; preds = %_Z24exact_unit_for_byte_sizem.exit15
  %44 = icmp ugt i64 %39, 1048575
  %45 = and i64 %39, 1048575
  %46 = icmp eq i64 %45, 0
  %or.cond14.i17 = and i1 %44, %46
  br i1 %or.cond14.i17, label %.thread40, label %49

.thread40:                                        ; preds = %43
  %47 = lshr exact i64 %39, 20
  br label %_Z24exact_unit_for_byte_sizem.exit27

_Z23byte_size_in_exact_unitm.exit21:              ; preds = %_Z24exact_unit_for_byte_sizem.exit15
  %48 = lshr exact i64 %39, 30
  br label %_Z24exact_unit_for_byte_sizem.exit27

49:                                               ; preds = %43
  %50 = icmp ugt i64 %39, 1023
  %51 = and i64 %39, 1023
  %52 = icmp eq i64 %51, 0
  %or.cond16.i18 = and i1 %50, %52
  %53 = lshr exact i64 %39, 10
  %spec.select.i19 = select i1 %or.cond16.i18, i64 %53, i64 %39
  %54 = icmp ugt i64 %39, 1023
  %55 = and i64 %39, 1023
  %56 = icmp eq i64 %55, 0
  %or.cond11.i24 = and i1 %54, %56
  %spec.select.i25 = select i1 %or.cond11.i24, ptr @.str.7, ptr @.str.8
  br label %_Z24exact_unit_for_byte_sizem.exit27

_Z24exact_unit_for_byte_sizem.exit27:             ; preds = %.thread40, %_Z23byte_size_in_exact_unitm.exit21, %49
  %.0.i2036 = phi i64 [ %48, %_Z23byte_size_in_exact_unitm.exit21 ], [ %spec.select.i19, %49 ], [ %47, %.thread40 ]
  %.0.i26 = phi ptr [ @.str.5, %_Z23byte_size_in_exact_unitm.exit21 ], [ %spec.select.i25, %49 ], [ @.str.6, %.thread40 ]
  call void (ptr, ptr, ...) @_ZN19GCLogPreciousHandle5writeEPKcz(ptr noundef nonnull align 8 dereferenceable(16) %2, ptr noundef nonnull @.str, i64 noundef %.0.i30, ptr noundef nonnull %.0.i3, i64 noundef %.0.i833, ptr noundef nonnull %.0.i14, i64 noundef %.0.i2036, ptr noundef nonnull %.0.i26)
  call void @_ZN12GCInitLogger10print_heapEv(ptr noundef nonnull align 8 dereferenceable(8) %0) #4
  ret void
}